target datalayout = "e-m:e-p270:32:32-p271:32:32-p272:64:64-i64:64-i128:128-f80:128-n8:16:32:64-S128"
target triple = "x86_64-pc-linux-gnu"

@.str.160 = private unnamed_addr constant [27 x i8] c"Error creating file %s, %m\00", align 1
@.str.161 = private unnamed_addr constant [26 x i8] c"Error writing file %s, %m\00", align 1

; Function Attrs: nounwind uwtable
define dso_local i32 @write_data_to_file(ptr noundef %0, ptr noundef %1) #0 {
  %3 = alloca i32, align 4
  %4 = alloca ptr, align 8
  %5 = alloca ptr, align 8
  %6 = alloca i32, align 4
  %7 = alloca i32, align 4
  %8 = alloca i32, align 4
  %9 = alloca i32, align 4
  %10 = alloca i32, align 4
  store ptr %0, ptr %4, align 8
  store ptr %1, ptr %5, align 8
  call void @llvm.lifetime.start.p0(i64 4, ptr %6) #13
  call void @llvm.lifetime.start.p0(i64 4, ptr %7) #13
  call void @llvm.lifetime.start.p0(i64 4, ptr %8) #13
  call void @llvm.lifetime.start.p0(i64 4, ptr %9) #13
  %11 = load ptr, ptr %5, align 8
  %12 = icmp eq ptr %11, null
  br i1 %12, label %13, label %16

13:                                               ; preds = %2
  %14 = load ptr, ptr %4, align 8
  %15 = call i32 @unlink(ptr noundef %14) #13
  store i32 0, ptr %3, align 4
  store i32 1, ptr %10, align 4
  br label %63

16:                                               ; preds = %2
  %17 = load ptr, ptr %4, align 8
  %18 = call i32 @creat(ptr noundef %17, i32 noundef 448)
  store i32 %18, ptr %6, align 4
  %19 = load i32, ptr %6, align 4
  %20 = icmp slt i32 %19, 0
  br i1 %20, label %21, label %24

21:                                               ; preds = %16
  %22 = load ptr, ptr %4, align 8
  %23 = call i32 (ptr, ...) @error(ptr noundef @.str.160, ptr noundef %22)
  store i32 2019, ptr %3, align 4
  store i32 1, ptr %10, align 4
  br label %63

24:                                               ; preds = %16
  %25 = load ptr, ptr %5, align 8
  %26 = call i64 @strlen(ptr noundef %25) #16
  %27 = add i64 %26, 1
  %28 = trunc i64 %27 to i32
  store i32 %28, ptr %8, align 4
  store i32 0, ptr %7, align 4
  br label %29

29:                                               ; preds = %53, %24
  %30 = load i32, ptr %8, align 4
  %31 = icmp sgt i32 %30, 0
  br i1 %31, label %32, label %60

32:                                               ; preds = %29
  %33 = load i32, ptr %6, align 4
  %34 = load ptr, ptr %5, align 8
  %35 = load i32, ptr %7, align 4
  %36 = sext i32 %35 to i64
  %37 = getelementptr inbounds i8, ptr %34, i64 %36
  %38 = load i32, ptr %8, align 4
  %39 = sext i32 %38 to i64
  %40 = call i64 @write(i32 noundef %33, ptr noundef %37, i64 noundef %39)
  %41 = trunc i64 %40 to i32
  store i32 %41, ptr %9, align 4
  %42 = load i32, ptr %9, align 4
  %43 = icmp slt i32 %42, 0
  br i1 %43, label %44, label %53

44:                                               ; preds = %32
  %45 = call ptr @__errno_location() #14
  %46 = load i32, ptr %45, align 4
  %47 = icmp ne i32 %46, 4
  br i1 %47, label %48, label %53

48:                                               ; preds = %44
  %49 = load ptr, ptr %4, align 8
  %50 = call i32 (ptr, ...) @error(ptr noundef @.str.161, ptr noundef %49)
  %51 = load i32, ptr %6, align 4
  %52 = call i32 @close(i32 noundef %51)
  store i32 2019, ptr %3, align 4
  store i32 1, ptr %10, align 4
  br label %63

53:                                               ; preds = %44, %32
  %54 = load i32, ptr %9, align 4
  %55 = load i32, ptr %8, align 4
  %56 = sub nsw i32 %55, %54
  store i32 %56, ptr %8, align 4
  %57 = load i32, ptr %9, align 4
  %58 = load i32, ptr %7, align 4
  %59 = add nsw i32 %58, %57
  store i32 %59, ptr %7, align 4
  br label %29, !llvm.loop !48

60:                                               ; preds = %29
  %61 = load i32, ptr %6, align 4
  %62 = call i32 @close(i32 noundef %61)
  store i32 0, ptr %3, align 4
  store i32 1, ptr %10, align 4
  br label %63

63:                                               ; preds = %60, %48, %21, %13
  call void @llvm.lifetime.end.p0(i64 4, ptr %9) #13
  call void @llvm.lifetime.end.p0(i64 4, ptr %8) #13
  call void @llvm.lifetime.end.p0(i64 4, ptr %7) #13
  call void @llvm.lifetime.end.p0(i64 4, ptr %6) #13
  %64 = load i32, ptr %3, align 4
  ret i32 %64
}