; Function Attrs: nounwind uwtable
define dso_local range(i32 0, 2020) i32 @write_data_to_file(ptr noundef %0, ptr noundef readonly captures(address_is_null) %1) local_unnamed_addr #0 {
  %3 = icmp eq ptr %1, null
  br i1 %3, label %4, label %6

4:                                                ; preds = %2
  %5 = tail call i32 @unlink(ptr noundef %0) #27
  br label %33

6:                                                ; preds = %2
  %7 = tail call i32 @creat(ptr noundef %0, i32 noundef 448) #27
  %8 = icmp slt i32 %7, 0
  br i1 %8, label %9, label %11

9:                                                ; preds = %6
  %10 = tail call i32 (ptr, ...) @error(ptr noundef nonnull @.str.160, ptr noundef %0) #27
  br label %33

11:                                               ; preds = %6
  %12 = tail call i64 @strlen(ptr noundef nonnull dereferenceable(1) %1) #30
  %13 = trunc i64 %12 to i32
  %14 = icmp ult i32 %13, 2147483647
  br i1 %14, label %.lr.ph.preheader, label %._crit_edge

.lr.ph.preheader:                                 ; preds = %11
  %15 = add nuw nsw i32 %13, 1
  br label %.lr.ph

.lr.ph:                                           ; preds = %.lr.ph.preheader, %28
  %.01924 = phi i32 [ %29, %28 ], [ %15, %.lr.ph.preheader ]
  %.02023 = phi i32 [ %30, %28 ], [ 0, %.lr.ph.preheader ]
  %16 = sext i32 %.02023 to i64
  %17 = getelementptr inbounds i8, ptr %1, i64 %16
  %18 = zext nneg i32 %.01924 to i64
  %19 = tail call i64 @write(i32 noundef %7, ptr noundef nonnull %17, i64 noundef %18) #27
  %20 = trunc i64 %19 to i32
  %21 = icmp slt i32 %20, 0
  br i1 %21, label %22, label %28

22:                                               ; preds = %.lr.ph
  %23 = tail call ptr @__errno_location() #28
  %24 = load i32, ptr %23, align 4
  %.not = icmp eq i32 %24, 4
  br i1 %.not, label %28, label %25

25:                                               ; preds = %22
  %26 = tail call i32 (ptr, ...) @error(ptr noundef nonnull @.str.161, ptr noundef %0) #27
  %27 = tail call i32 @close(i32 noundef %7) #27
  br label %33

28:                                               ; preds = %22, %.lr.ph
  %29 = sub nsw i32 %.01924, %20
  %30 = add nsw i32 %.02023, %20
  %31 = icmp sgt i32 %29, 0
  br i1 %31, label %.lr.ph, label %._crit_edge, !llvm.loop !50

._crit_edge:                                      ; preds = %28, %11
  %32 = tail call i32 @close(i32 noundef %7) #27
  br label %33

33:                                               ; preds = %._crit_edge, %25, %9, %4
  %.0 = phi i32 [ 0, %4 ], [ 2019, %9 ], [ 2019, %25 ], [ 0, %._crit_edge ]
  ret i32 %.0
}